target datalayout = "e-m:e-p270:32:32-p271:32:32-p272:64:64-i64:64-i128:128-f80:128-n8:16:32:64-S128"
target triple = "x86_64-pc-linux-gnu"

%struct.Ccf_Man_t_ = type { ptr, i32, i32, i32, i32, ptr, ptr, ptr, ptr }
%struct.Vec_Int_t_ = type { i32, i32, ptr }
%struct.Gia_Man_t_ = type { ptr, ptr, i32, i32, i32, i32, ptr, ptr, i32, i32, i32, ptr, ptr, %struct.Vec_Int_t_, %struct.Vec_Int_t_, i32, i32, i32, %struct.Vec_Int_t_, ptr, ptr, ptr, i32, i32, i32, i32, ptr, ptr, ptr, ptr, ptr, i32, i32, ptr, i32, ptr, ptr, ptr, ptr, ptr, ptr, ptr, ptr, ptr, ptr, ptr, ptr, ptr, ptr, ptr, ptr, ptr, ptr, %struct.Vec_Int_t_, %struct.Vec_Int_t_, ptr, ptr, ptr, ptr, ptr, ptr, ptr, ptr, ptr, ptr, ptr, ptr, ptr, ptr, ptr, ptr, ptr, ptr, ptr, ptr, ptr, i32, float, float, ptr, ptr, i32, ptr, ptr, ptr, ptr, ptr, ptr, ptr, ptr, ptr, ptr, ptr, ptr, ptr, ptr, ptr, i64, i64, ptr, ptr, i32, i32, i32, i32, i32, i32, i32, i32, i32, i32, i32, i32, ptr, ptr, ptr, ptr, ptr, ptr, ptr, ptr, i32, i32, i32, ptr, i32, i32, ptr, ptr, ptr, ptr, ptr, ptr, i32, i32, ptr, %struct.Vec_Int_t_, %struct.Vec_Int_t_, %struct.Vec_Int_t_, ptr, ptr, ptr, i32, i32, i32, i32, ptr, ptr, ptr, ptr, ptr }
%struct.timespec = type { i64, i64 }

@.str = private unnamed_addr constant [29 x i8] c"%3d : AIG =%7d  Conf =%7d.  \00", align 1
@.str.1 = private unnamed_addr constant [5 x i8] c"Time\00", align 1
@.str.13 = private unnamed_addr constant [5 x i8] c"%s =\00", align 1
@.str.14 = private unnamed_addr constant [11 x i8] c"%9.2f sec\0A\00", align 1

; Function Attrs: inlinehint nounwind uwtable
define internal void @Abc_PrintTime(i32 noundef %0, ptr noundef %1, i64 noundef %2) #5 {
  %4 = alloca i32, align 4
  %5 = alloca ptr, align 8
  %6 = alloca i64, align 8
  store i32 %0, ptr %4, align 4, !tbaa !8
  store ptr %1, ptr %5, align 8, !tbaa !76
  store i64 %2, ptr %6, align 8, !tbaa !74
  %7 = load ptr, ptr %5, align 8, !tbaa !76
  call void (i32, ptr, ...) @Abc_Print(i32 noundef 1, ptr noundef @.str.13, ptr noundef %7)
  %8 = load i64, ptr %6, align 8, !tbaa !74
  %9 = sitofp i64 %8 to double
  %10 = fmul double 1.000000e+00, %9
  %11 = fdiv double %10, 1.000000e+06
  call void (i32, ptr, ...) @Abc_Print(i32 noundef 1, ptr noundef @.str.14, double noundef %11)
  ret void
}

; Function Attrs: inlinehint nounwind uwtable
define internal i32 @Gia_ManObjNum(ptr noundef %0) #5 {
  %2 = alloca ptr, align 8
  store ptr %0, ptr %2, align 8, !tbaa !3
  %3 = load ptr, ptr %2, align 8, !tbaa !3
  %4 = getelementptr inbounds nuw %struct.Gia_Man_t_, ptr %3, i32 0, i32 4
  %5 = load i32, ptr %4, align 8, !tbaa !40
  ret i32 %5
}

; Function Attrs: inlinehint nounwind uwtable
define internal i64 @Abc_Clock() #5 {
  %1 = alloca i64, align 8
  %2 = alloca %struct.timespec, align 8
  %3 = alloca i32, align 4
  %4 = alloca i64, align 8
  call void @llvm.lifetime.start.p0(i64 16, ptr %2) #12
  %5 = call i32 @clock_gettime(i32 noundef 1, ptr noundef %2) #12
  %6 = icmp slt i32 %5, 0
  br i1 %6, label %7, label %8

7:                                                ; preds = %0
  store i64 -1, ptr %1, align 8
  store i32 1, ptr %3, align 4
  br label %19

8:                                                ; preds = %0
  call void @llvm.lifetime.start.p0(i64 8, ptr %4) #12
  %9 = getelementptr inbounds nuw %struct.timespec, ptr %2, i32 0, i32 0
  %10 = load i64, ptr %9, align 8, !tbaa !83
  %11 = mul nsw i64 %10, 1000000
  store i64 %11, ptr %4, align 8, !tbaa !74
  %12 = getelementptr inbounds nuw %struct.timespec, ptr %2, i32 0, i32 1
  %13 = load i64, ptr %12, align 8, !tbaa !85
  %14 = mul nsw i64 %13, 1000000
  %15 = sdiv i64 %14, 1000000000
  %16 = load i64, ptr %4, align 8, !tbaa !74
  %17 = add nsw i64 %16, %15
  store i64 %17, ptr %4, align 8, !tbaa !74
  %18 = load i64, ptr %4, align 8, !tbaa !74
  store i64 %18, ptr %1, align 8
  store i32 1, ptr %3, align 4
  call void @llvm.lifetime.end.p0(i64 8, ptr %4) #12
  br label %19

19:                                               ; preds = %8, %7
  call void @llvm.lifetime.end.p0(i64 16, ptr %2) #12
  %20 = load i64, ptr %1, align 8
  ret i64 %20
}

; Function Attrs: nounwind uwtable
define i32 @Gia_ManCofGetReachable(ptr noundef %0, i32 noundef %1) #0 {
  %3 = alloca i32, align 4
  %4 = alloca ptr, align 8
  %5 = alloca i32, align 4
  %6 = alloca i32, align 4
  %7 = alloca i32, align 4
  %8 = alloca i32, align 4
  %9 = alloca i32, align 4
  %10 = alloca i32, align 4
  %11 = alloca i64, align 8
  %12 = alloca i32, align 4
  store ptr %0, ptr %4, align 8, !tbaa !10
  store i32 %1, ptr %5, align 4, !tbaa !8
  call void @llvm.lifetime.start.p0(i64 4, ptr %6) #12
  store i32 0, ptr %6, align 4, !tbaa !8
  call void @llvm.lifetime.start.p0(i64 4, ptr %7) #12
  store i32 0, ptr %7, align 4, !tbaa !8
  call void @llvm.lifetime.start.p0(i64 4, ptr %8) #12
  store i32 0, ptr %8, align 4, !tbaa !8
  call void @llvm.lifetime.start.p0(i64 4, ptr %9) #12
  call void @llvm.lifetime.start.p0(i64 4, ptr %10) #12
  call void @llvm.lifetime.start.p0(i64 8, ptr %11) #12
  %13 = load ptr, ptr %4, align 8, !tbaa !10
  %14 = getelementptr inbounds nuw %struct.Ccf_Man_t_, ptr %13, i32 0, i32 8
  %15 = load ptr, ptr %14, align 8, !tbaa !28
  %16 = getelementptr inbounds i32, ptr %5, i64 1
  %17 = load ptr, ptr %4, align 8, !tbaa !10
  %18 = getelementptr inbounds nuw %struct.Ccf_Man_t_, ptr %17, i32 0, i32 2
  %19 = load i32, ptr %18, align 4, !tbaa !17
  %20 = sext i32 %19 to i64
  %21 = call i32 @sat_solver_solve(ptr noundef %15, ptr noundef %5, ptr noundef %16, i64 noundef %20, i64 noundef 0, i64 noundef 0, i64 noundef 0)
  store i32 %21, ptr %10, align 4, !tbaa !8
  %22 = load i32, ptr %10, align 4, !tbaa !8
  %23 = icmp eq i32 %22, -1
  br i1 %23, label %24, label %25

24:                                               ; preds = %2
  store i32 1, ptr %3, align 4
  store i32 1, ptr %12, align 4
  br label %85

25:                                               ; preds = %2
  br label %26

26:                                               ; preds = %79, %25
  %27 = load i32, ptr %10, align 4, !tbaa !8
  %28 = icmp eq i32 %27, 1
  br i1 %28, label %29, label %80

29:                                               ; preds = %26
  %30 = call i64 @Abc_Clock()
  store i64 %30, ptr %11, align 8, !tbaa !74
  %31 = load ptr, ptr %4, align 8, !tbaa !10
  %32 = load i32, ptr %5, align 4, !tbaa !8
  %33 = call i32 @Gia_ManCofOneDerive(ptr noundef %31, i32 noundef %32)
  store i32 %33, ptr %9, align 4, !tbaa !8
  %34 = load ptr, ptr %4, align 8, !tbaa !10
  %35 = getelementptr inbounds nuw %struct.Ccf_Man_t_, ptr %34, i32 0, i32 8
  %36 = load ptr, ptr %35, align 8, !tbaa !28
  %37 = getelementptr inbounds i32, ptr %9, i64 1
  %38 = call i32 @sat_solver_addclause(ptr noundef %36, ptr noundef %9, ptr noundef %37)
  store i32 %38, ptr %10, align 4, !tbaa !8
  %39 = load ptr, ptr %4, align 8, !tbaa !10
  %40 = getelementptr inbounds nuw %struct.Ccf_Man_t_, ptr %39, i32 0, i32 8
  %41 = load ptr, ptr %40, align 8, !tbaa !28
  %42 = getelementptr inbounds i32, ptr %5, i64 1
  %43 = load ptr, ptr %4, align 8, !tbaa !10
  %44 = getelementptr inbounds nuw %struct.Ccf_Man_t_, ptr %43, i32 0, i32 2
  %45 = load i32, ptr %44, align 4, !tbaa !17
  %46 = sext i32 %45 to i64
  %47 = call i32 @sat_solver_solve(ptr noundef %41, ptr noundef %5, ptr noundef %42, i64 noundef %46, i64 noundef 0, i64 noundef 0, i64 noundef 0)
  store i32 %47, ptr %10, align 4, !tbaa !8
  %48 = load ptr, ptr %4, align 8, !tbaa !10
  %49 = getelementptr inbounds nuw %struct.Ccf_Man_t_, ptr %48, i32 0, i32 4
  %50 = load i32, ptr %49, align 4, !tbaa !19
  %51 = icmp ne i32 %50, 0
  br i1 %51, label %52, label %79

52:                                               ; preds = %29
  %53 = load i32, ptr %8, align 4, !tbaa !8
  %54 = add nsw i32 %53, 1
  store i32 %54, ptr %8, align 4, !tbaa !8
  %55 = load ptr, ptr %4, align 8, !tbaa !10
  %56 = getelementptr inbounds nuw %struct.Ccf_Man_t_, ptr %55, i32 0, i32 6
  %57 = load ptr, ptr %56, align 8, !tbaa !35
  %58 = call i32 @Gia_ManObjNum(ptr noundef %57)
  %59 = load i32, ptr %6, align 4, !tbaa !8
  %60 = sub nsw i32 %58, %59
  %61 = load ptr, ptr %4, align 8, !tbaa !10
  %62 = getelementptr inbounds nuw %struct.Ccf_Man_t_, ptr %61, i32 0, i32 8
  %63 = load ptr, ptr %62, align 8, !tbaa !28
  %64 = call i32 @sat_solver_nconflicts(ptr noundef %63)
  %65 = load i32, ptr %7, align 4, !tbaa !8
  %66 = sub nsw i32 %64, %65
  %67 = call i32 (ptr, ...) @printf(ptr noundef @.str, i32 noundef %53, i32 noundef %60, i32 noundef %66)
  %68 = call i64 @Abc_Clock()
  %69 = load i64, ptr %11, align 8, !tbaa !74
  %70 = sub nsw i64 %68, %69
  call void @Abc_PrintTime(i32 noundef 1, ptr noundef @.str.1, i64 noundef %70)
  %71 = load ptr, ptr %4, align 8, !tbaa !10
  %72 = getelementptr inbounds nuw %struct.Ccf_Man_t_, ptr %71, i32 0, i32 6
  %73 = load ptr, ptr %72, align 8, !tbaa !35
  %74 = call i32 @Gia_ManObjNum(ptr noundef %73)
  store i32 %74, ptr %6, align 4, !tbaa !8
  %75 = load ptr, ptr %4, align 8, !tbaa !10
  %76 = getelementptr inbounds nuw %struct.Ccf_Man_t_, ptr %75, i32 0, i32 8
  %77 = load ptr, ptr %76, align 8, !tbaa !28
  %78 = call i32 @sat_solver_nconflicts(ptr noundef %77)
  store i32 %78, ptr %7, align 4, !tbaa !8
  br label %79

79:                                               ; preds = %52, %29
  br label %26, !llvm.loop !75

80:                                               ; preds = %26
  %81 = load i32, ptr %10, align 4, !tbaa !8
  %82 = icmp eq i32 %81, 0
  br i1 %82, label %83, label %84

83:                                               ; preds = %80
  store i32 -1, ptr %3, align 4
  store i32 1, ptr %12, align 4
  br label %85

84:                                               ; preds = %80
  store i32 0, ptr %3, align 4
  store i32 1, ptr %12, align 4
  br label %85

85:                                               ; preds = %84, %83, %24
  call void @llvm.lifetime.end.p0(i64 8, ptr %11) #12
  call void @llvm.lifetime.end.p0(i64 4, ptr %10) #12
  call void @llvm.lifetime.end.p0(i64 4, ptr %9) #12
  call void @llvm.lifetime.end.p0(i64 4, ptr %8) #12
  call void @llvm.lifetime.end.p0(i64 4, ptr %7) #12
  call void @llvm.lifetime.end.p0(i64 4, ptr %6) #12
  %86 = load i32, ptr %3, align 4
  ret i32 %86
}