; Function Attrs: nounwind uwtable
define range(i32 -1, 2) i32 @Gia_ManCofGetReachable(ptr noundef %0, i32 noundef %1) local_unnamed_addr #0 {
  %3 = alloca %struct.timespec, align 8
  %4 = alloca %struct.timespec, align 8
  %5 = alloca i32, align 4
  %6 = alloca i32, align 4
  store i32 %1, ptr %5, align 4, !tbaa !47
  call void @llvm.lifetime.start.p0(i64 4, ptr nonnull %6) #17
  %7 = getelementptr inbounds nuw i8, ptr %0, i64 48
  %8 = load ptr, ptr %7, align 8, !tbaa !27
  %9 = getelementptr inbounds nuw i8, ptr %5, i64 4
  %10 = getelementptr inbounds nuw i8, ptr %0, i64 12
  %11 = load i32, ptr %10, align 4, !tbaa !13
  %12 = sext i32 %11 to i64
  %13 = call i32 @sat_solver_solve(ptr noundef %8, ptr noundef nonnull %5, ptr noundef nonnull %9, i64 noundef %12, i64 noundef 0, i64 noundef 0, i64 noundef 0) #17
  %14 = icmp eq i32 %13, -1
  br i1 %14, label %.loopexit, label %.preheader

.preheader:                                       ; preds = %2
  %15 = getelementptr inbounds nuw i8, ptr %4, i64 8
  %16 = getelementptr inbounds nuw i8, ptr %6, i64 4
  %17 = getelementptr inbounds nuw i8, ptr %0, i64 20
  %18 = getelementptr inbounds nuw i8, ptr %0, i64 32
  %19 = getelementptr inbounds nuw i8, ptr %3, i64 8
  br label %.outer

.outer:                                           ; preds = %Abc_Clock.exit27, %.preheader
  %.022.ph = phi i32 [ %.val, %Abc_Clock.exit27 ], [ 0, %.preheader ]
  %.020.ph = phi i32 [ %59, %Abc_Clock.exit27 ], [ 0, %.preheader ]
  %.019.ph = phi i32 [ %37, %Abc_Clock.exit27 ], [ 0, %.preheader ]
  %.018.ph = phi i32 [ %34, %Abc_Clock.exit27 ], [ %13, %.preheader ]
  br label %20

20:                                               ; preds = %.outer, %Abc_Clock.exit
  %.018 = phi i32 [ %34, %Abc_Clock.exit ], [ %.018.ph, %.outer ]
  switch i32 %.018, label %.loopexit [
    i32 1, label %21
    i32 0, label %.loopexit.loopexit
  ]

21:                                               ; preds = %20
  call void @llvm.lifetime.start.p0(i64 16, ptr nonnull %4) #17
  %22 = call i32 @clock_gettime(i32 noundef 1, ptr noundef nonnull %4) #17
  %23 = icmp slt i32 %22, 0
  br i1 %23, label %Abc_Clock.exit, label %24

24:                                               ; preds = %21
  %25 = load i64, ptr %4, align 8, !tbaa !68
  %.neg28 = mul i64 %25, -1000000
  %26 = load i64, ptr %15, align 8, !tbaa !70
  %.neg = sdiv i64 %26, -1000
  %.neg29 = add i64 %.neg, %.neg28
  br label %Abc_Clock.exit

Abc_Clock.exit:                                   ; preds = %21, %24
  %.0.i.neg = phi i64 [ %.neg29, %24 ], [ 1, %21 ]
  call void @llvm.lifetime.end.p0(i64 16, ptr nonnull %4) #17
  %27 = load i32, ptr %5, align 4, !tbaa !47
  %28 = call i32 @Gia_ManCofOneDerive(ptr noundef nonnull %0, i32 noundef %27)
  store i32 %28, ptr %6, align 4, !tbaa !47
  %29 = load ptr, ptr %7, align 8, !tbaa !27
  %30 = call i32 @sat_solver_addclause(ptr noundef %29, ptr noundef nonnull %6, ptr noundef nonnull %16) #17
  %31 = load ptr, ptr %7, align 8, !tbaa !27
  %32 = load i32, ptr %10, align 4, !tbaa !13
  %33 = sext i32 %32 to i64
  %34 = call i32 @sat_solver_solve(ptr noundef %31, ptr noundef nonnull %5, ptr noundef nonnull %9, i64 noundef %33, i64 noundef 0, i64 noundef 0, i64 noundef 0) #17
  %35 = load i32, ptr %17, align 4, !tbaa !15
  %.not = icmp eq i32 %35, 0
  br i1 %.not, label %20, label %36, !llvm.loop !71

36:                                               ; preds = %Abc_Clock.exit
  %37 = add nuw nsw i32 %.019.ph, 1
  %38 = load ptr, ptr %18, align 8, !tbaa !28
  %39 = getelementptr i8, ptr %38, i64 24
  %.val25 = load i32, ptr %39, align 8, !tbaa !29
  %40 = sub nsw i32 %.val25, %.022.ph
  %41 = load ptr, ptr %7, align 8, !tbaa !27
  %42 = call i32 @sat_solver_nconflicts(ptr noundef %41) #17
  %43 = sub nsw i32 %42, %.020.ph
  %44 = call i32 (ptr, ...) @printf(ptr noundef nonnull dereferenceable(1) @.str, i32 noundef %.019.ph, i32 noundef %40, i32 noundef %43)
  call void @llvm.lifetime.start.p0(i64 16, ptr nonnull %3) #17
  %45 = call i32 @clock_gettime(i32 noundef 1, ptr noundef nonnull %3) #17
  %46 = icmp slt i32 %45, 0
  br i1 %46, label %Abc_Clock.exit27, label %47

47:                                               ; preds = %36
  %48 = load i64, ptr %3, align 8, !tbaa !68
  %49 = mul nsw i64 %48, 1000000
  %50 = load i64, ptr %19, align 8, !tbaa !70
  %51 = sdiv i64 %50, 1000
  %52 = add nsw i64 %51, %49
  br label %Abc_Clock.exit27

Abc_Clock.exit27:                                 ; preds = %36, %47
  %.0.i26 = phi i64 [ %52, %47 ], [ -1, %36 ]
  call void @llvm.lifetime.end.p0(i64 16, ptr nonnull %3) #17
  %53 = add i64 %.0.i26, %.0.i.neg
  call void (i32, ptr, ...) @Abc_Print(i32 poison, ptr noundef nonnull @.str.13, ptr noundef nonnull @.str.1)
  %54 = sitofp i64 %53 to double
  %55 = fdiv double %54, 1.000000e+06
  call void (i32, ptr, ...) @Abc_Print(i32 poison, ptr noundef nonnull @.str.14, double noundef %55)
  %56 = load ptr, ptr %18, align 8, !tbaa !28
  %57 = getelementptr i8, ptr %56, i64 24
  %.val = load i32, ptr %57, align 8, !tbaa !29
  %58 = load ptr, ptr %7, align 8, !tbaa !27
  %59 = call i32 @sat_solver_nconflicts(ptr noundef %58) #17
  br label %.outer, !llvm.loop !71

.loopexit.loopexit:                               ; preds = %20
  br label %.loopexit

.loopexit:                                        ; preds = %20, %.loopexit.loopexit, %2
  %.0 = phi i32 [ 1, %2 ], [ -1, %.loopexit.loopexit ], [ 0, %20 ]
  call void @llvm.lifetime.end.p0(i64 4, ptr nonnull %6) #17
  ret i32 %.0
}